; Function Attrs: mustprogress uwtable
define void @_ZN3zmq14ipc_listener_tC2EPNS_11io_thread_tEPNS_13socket_base_tERKNS_9options_tE(ptr noundef nonnull align 8 dereferenceable(1592) %this, ptr noundef %io_thread_, ptr noundef %socket_, ptr noundef nonnull align 8 dereferenceable(1336) %options_) unnamed_addr #0 align 2 {
entry:
  tail call void @_ZN3zmq22stream_listener_base_tC2EPNS_11io_thread_tEPNS_13socket_base_tERKNS_9options_tE(ptr noundef nonnull align 8 dereferenceable(1520) %this, ptr noundef %io_thread_, ptr noundef %socket_, ptr noundef nonnull align 8 dereferenceable(1336) %options_)
  store ptr getelementptr inbounds ({ [30 x ptr], [7 x ptr] }, ptr @_ZTVN3zmq14ipc_listener_tE, i64 0, i32 0, i64 2), ptr %this, align 8
  %add.ptr = getelementptr inbounds i8, ptr %this, i64 1448
  store ptr getelementptr inbounds ({ [30 x ptr], [7 x ptr] }, ptr @_ZTVN3zmq14ipc_listener_tE, i64 0, i32 1, i64 2), ptr %add.ptr, align 8
  %_has_file = getelementptr inbounds i8, ptr %this, i64 1520
  store i8 0, ptr %_has_file, align 8
  %_tmp_socket_dirname = getelementptr inbounds i8, ptr %this, i64 1528
  tail call void @_ZNSt7__cxx1112basic_stringIcSt11char_traitsIcESaIcEEC1Ev(ptr noundef nonnull align 8 dereferenceable(32) %_tmp_socket_dirname) #11
  %_filename = getelementptr inbounds i8, ptr %this, i64 1560
  tail call void @_ZNSt7__cxx1112basic_stringIcSt11char_traitsIcESaIcEEC1Ev(ptr noundef nonnull align 8 dereferenceable(32) %_filename) #11
  ret void
}